; Function Attrs: nounwind uwtable
define hidden void @zim_Attribute___construct(ptr noundef %0, ptr nocapture readnone %1) #0 {
  %3 = alloca i64, align 8
  store i64 63, ptr %3, align 8
  %4 = getelementptr inbounds i8, ptr %0, i64 32
  %5 = getelementptr inbounds i8, ptr %0, i64 44
  %6 = load i32, ptr %5, align 4
  %7 = icmp ugt i32 %6, 1
  br i1 %7, label %.thread78, label %8

8:                                                ; preds = %2
  %9 = icmp eq i32 %6, 0
  br i1 %9, label %.thread86, label %10

10:                                               ; preds = %8
  %11 = getelementptr inbounds i8, ptr %0, i64 80
  %12 = getelementptr inbounds i8, ptr %0, i64 88
  %13 = load i8, ptr %12, align 8
  %14 = icmp eq i8 %13, 4
  br i1 %14, label %.thread68, label %16

.thread68:                                        ; preds = %10
  %15 = load i64, ptr %11, align 8
  br label %.thread86

16:                                               ; preds = %10
  %17 = call zeroext i1 @zend_parse_arg_long_slow(ptr noundef nonnull %11, ptr noundef nonnull %3, i32 noundef 1) #16
  %.fr = freeze i1 %17
  br i1 %.fr, label %..thread86_crit_edge, label %18

..thread86_crit_edge:                             ; preds = %16
  %.pre = load i64, ptr %3, align 8
  br label %.thread86

.thread78:                                        ; preds = %2
  tail call void @zend_wrong_parameters_count_error(i32 noundef 0, i32 noundef 1) #16
  br label %18

18:                                               ; preds = %16, %.thread78
  %.05785 = phi i32 [ 1, %.thread78 ], [ 9, %16 ]
  %.05884 = phi i32 [ 0, %.thread78 ], [ 1, %16 ]
  %.06083 = phi ptr [ null, %.thread78 ], [ %11, %16 ]
  call void @zend_wrong_parameter_error(i32 noundef %.05785, i32 noundef %.05884, ptr noundef null, i32 noundef 0, ptr noundef %.06083) #16
  br label %23

.thread86:                                        ; preds = %..thread86_crit_edge, %.thread68, %8
  %19 = phi i64 [ %.pre, %..thread86_crit_edge ], [ %15, %.thread68 ], [ 63, %8 ]
  %20 = load ptr, ptr %4, align 8
  %21 = getelementptr inbounds i8, ptr %20, i64 40
  store i64 %19, ptr %21, align 8
  %22 = getelementptr inbounds i8, ptr %20, i64 48
  store i32 4, ptr %22, align 8
  br label %23

23:                                               ; preds = %.thread86, %18
  ret void
}